; Function Attrs: mustprogress nofree norecurse nosync nounwind willreturn memory(argmem: read) uwtable
define hidden noundef zeroext i1 @_ZNK10func_decls18signatures_collideEjPKP4sortS1_P9func_decl(ptr nocapture noundef nonnull readnone align 8 dereferenceable(8) %this, i32 noundef %n, ptr nocapture noundef readonly %domain, ptr noundef readnone %range, ptr nocapture noundef readonly %g) local_unnamed_addr #6 align 2 {
entry:
  %m_range.i = getelementptr inbounds i8, ptr %g, i64 40
  %0 = load ptr, ptr %m_range.i, align 8
  %cmp.not = icmp eq ptr %0, %range
  br i1 %cmp.not, label %if.end, label %return

if.end:                                           ; preds = %entry
  %m_arity.i = getelementptr inbounds i8, ptr %g, i64 32
  %1 = load i32, ptr %m_arity.i, align 8
  %cmp3.not = icmp eq i32 %1, %n
  br i1 %cmp3.not, label %for.cond.preheader, label %return

for.cond.preheader:                               ; preds = %if.end
  %cmp67.not = icmp eq i32 %n, 0
  br i1 %cmp67.not, label %return, label %for.body.lr.ph

for.body.lr.ph:                                   ; preds = %for.cond.preheader
  %m_domain.i = getelementptr inbounds i8, ptr %g, i64 48
  %wide.trip.count = zext i32 %n to i64
  br label %for.body

for.body:                                         ; preds = %for.body, %for.body.lr.ph
  %indvars.iv = phi i64 [ 0, %for.body.lr.ph ], [ %indvars.iv.next, %for.body ]
  %arrayidx = getelementptr inbounds ptr, ptr %domain, i64 %indvars.iv
  %2 = load ptr, ptr %arrayidx, align 8
  %arrayidx.i = getelementptr inbounds [0 x ptr], ptr %m_domain.i, i64 0, i64 %indvars.iv
  %3 = load ptr, ptr %arrayidx.i, align 8
  %cmp8.not = icmp eq ptr %2, %3
  %indvars.iv.next = add nuw nsw i64 %indvars.iv, 1
  %exitcond.not = icmp ne i64 %indvars.iv.next, %wide.trip.count
  %or.cond.not = select i1 %cmp8.not, i1 %exitcond.not, i1 false
  br i1 %or.cond.not, label %for.body, label %return, !llvm.loop !6

return:                                           ; preds = %for.body, %for.cond.preheader, %if.end, %entry
  %retval.0 = phi i1 [ false, %entry ], [ false, %if.end ], [ true, %for.cond.preheader ], [ %cmp8.not, %for.body ]
  ret i1 %retval.0
}